#include <math.h>
#include <stdio.h>
#include <stdlib.h>
#include <string.h>

char w[100];
char m[200][200];           
char a[200],b[200];
int main()
{
	gets(w);
	scanf("%s",a);
	scanf("%s",b);
	int p=0,q=0,r;
	for(r=0;w[r]!='\0';r++)
	{
		if(w[r]==' ') 
		{
			p++;
			q=0;
		}
		else
		{
			m[p][q]=w[r];
			q++;       
		}
	}
	int i,x;
	for(i=0;i<p+1;i++)
	{
		if(strcmp(m[i],a)==0)
		{
			for(x=0;x<(strlen(b)+1);x++)
			{
				m[i][x]=b[x];
			}
		}
	}
	printf("%s",m[0]);
	for(i=1;i<p+1;i++)
	{
		printf(" %s",m[i]);
	}

	return 0;
}
