; ModuleID = '19/2437.c'
source_filename = "19/2437.c"
target datalayout = "e-m:e-p270:32:32-p271:32:32-p272:64:64-i64:64-f80:128-n8:16:32:64-S128"
target triple = "x86_64-pc-linux-gnu"

@w = common dso_local global [100 x i8] zeroinitializer, align 16
@.str = private unnamed_addr constant [3 x i8] c"%s\00", align 1
@a = common dso_local global [200 x i8] zeroinitializer, align 16
@b = common dso_local global [200 x i8] zeroinitializer, align 16
@m = common dso_local global [200 x [200 x i8]] zeroinitializer, align 16
@.str.1 = private unnamed_addr constant [4 x i8] c" %s\00", align 1

; Function Attrs: noinline nounwind uwtable
define dso_local i32 @main() #0 {
  %1 = alloca i32, align 4
  %2 = alloca i32, align 4
  %3 = alloca i32, align 4
  %4 = alloca i32, align 4
  %5 = alloca i32, align 4
  %6 = alloca i32, align 4
  store i32 0, i32* %1, align 4
  %7 = call i32 (i8*, ...) bitcast (i32 (...)* @gets to i32 (i8*, ...)*)(i8* getelementptr inbounds ([100 x i8], [100 x i8]* @w, i64 0, i64 0))
  %8 = call i32 (i8*, ...) @__isoc99_scanf(i8* getelementptr inbounds ([3 x i8], [3 x i8]* @.str, i64 0, i64 0), i8* getelementptr inbounds ([200 x i8], [200 x i8]* @a, i64 0, i64 0))
  %9 = call i32 (i8*, ...) @__isoc99_scanf(i8* getelementptr inbounds ([3 x i8], [3 x i8]* @.str, i64 0, i64 0), i8* getelementptr inbounds ([200 x i8], [200 x i8]* @b, i64 0, i64 0))
  store i32 0, i32* %2, align 4
  store i32 0, i32* %3, align 4
  store i32 0, i32* %4, align 4
  br label %10

10:                                               ; preds = %41, %0
  %11 = load i32, i32* %4, align 4
  %12 = sext i32 %11 to i64
  %13 = getelementptr inbounds [100 x i8], [100 x i8]* @w, i64 0, i64 %12
  %14 = load i8, i8* %13, align 1
  %15 = sext i8 %14 to i32
  %16 = icmp ne i32 %15, 0
  br i1 %16, label %17, label %44

17:                                               ; preds = %10
  %18 = load i32, i32* %4, align 4
  %19 = sext i32 %18 to i64
  %20 = getelementptr inbounds [100 x i8], [100 x i8]* @w, i64 0, i64 %19
  %21 = load i8, i8* %20, align 1
  %22 = sext i8 %21 to i32
  %23 = icmp eq i32 %22, 32
  br i1 %23, label %24, label %27

24:                                               ; preds = %17
  %25 = load i32, i32* %2, align 4
  %26 = add nsw i32 %25, 1
  store i32 %26, i32* %2, align 4
  store i32 0, i32* %3, align 4
  br label %40

27:                                               ; preds = %17
  %28 = load i32, i32* %4, align 4
  %29 = sext i32 %28 to i64
  %30 = getelementptr inbounds [100 x i8], [100 x i8]* @w, i64 0, i64 %29
  %31 = load i8, i8* %30, align 1
  %32 = load i32, i32* %2, align 4
  %33 = sext i32 %32 to i64
  %34 = getelementptr inbounds [200 x [200 x i8]], [200 x [200 x i8]]* @m, i64 0, i64 %33
  %35 = load i32, i32* %3, align 4
  %36 = sext i32 %35 to i64
  %37 = getelementptr inbounds [200 x i8], [200 x i8]* %34, i64 0, i64 %36
  store i8 %31, i8* %37, align 1
  %38 = load i32, i32* %3, align 4
  %39 = add nsw i32 %38, 1
  store i32 %39, i32* %3, align 4
  br label %40

40:                                               ; preds = %27, %24
  br label %41

41:                                               ; preds = %40
  %42 = load i32, i32* %4, align 4
  %43 = add nsw i32 %42, 1
  store i32 %43, i32* %4, align 4
  br label %10

44:                                               ; preds = %10
  store i32 0, i32* %5, align 4
  br label %45

45:                                               ; preds = %80, %44
  %46 = load i32, i32* %5, align 4
  %47 = load i32, i32* %2, align 4
  %48 = add nsw i32 %47, 1
  %49 = icmp slt i32 %46, %48
  br i1 %49, label %50, label %83

50:                                               ; preds = %45
  %51 = load i32, i32* %5, align 4
  %52 = sext i32 %51 to i64
  %53 = getelementptr inbounds [200 x [200 x i8]], [200 x [200 x i8]]* @m, i64 0, i64 %52
  %54 = getelementptr inbounds [200 x i8], [200 x i8]* %53, i64 0, i64 0
  %55 = call i32 @strcmp(i8* %54, i8* getelementptr inbounds ([200 x i8], [200 x i8]* @a, i64 0, i64 0)) #3
  %56 = icmp eq i32 %55, 0
  br i1 %56, label %57, label %79

57:                                               ; preds = %50
  store i32 0, i32* %6, align 4
  br label %58

58:                                               ; preds = %75, %57
  %59 = load i32, i32* %6, align 4
  %60 = sext i32 %59 to i64
  %61 = call i64 @strlen(i8* getelementptr inbounds ([200 x i8], [200 x i8]* @b, i64 0, i64 0)) #3
  %62 = add i64 %61, 1
  %63 = icmp ult i64 %60, %62
  br i1 %63, label %64, label %78

64:                                               ; preds = %58
  %65 = load i32, i32* %6, align 4
  %66 = sext i32 %65 to i64
  %67 = getelementptr inbounds [200 x i8], [200 x i8]* @b, i64 0, i64 %66
  %68 = load i8, i8* %67, align 1
  %69 = load i32, i32* %5, align 4
  %70 = sext i32 %69 to i64
  %71 = getelementptr inbounds [200 x [200 x i8]], [200 x [200 x i8]]* @m, i64 0, i64 %70
  %72 = load i32, i32* %6, align 4
  %73 = sext i32 %72 to i64
  %74 = getelementptr inbounds [200 x i8], [200 x i8]* %71, i64 0, i64 %73
  store i8 %68, i8* %74, align 1
  br label %75

75:                                               ; preds = %64
  %76 = load i32, i32* %6, align 4
  %77 = add nsw i32 %76, 1
  store i32 %77, i32* %6, align 4
  br label %58

78:                                               ; preds = %58
  br label %79

79:                                               ; preds = %78, %50
  br label %80

80:                                               ; preds = %79
  %81 = load i32, i32* %5, align 4
  %82 = add nsw i32 %81, 1
  store i32 %82, i32* %5, align 4
  br label %45

83:                                               ; preds = %45
  %84 = call i32 (i8*, ...) @printf(i8* getelementptr inbounds ([3 x i8], [3 x i8]* @.str, i64 0, i64 0), i8* getelementptr inbounds ([200 x [200 x i8]], [200 x [200 x i8]]* @m, i64 0, i64 0, i64 0))
  store i32 1, i32* %5, align 4
  br label %85

85:                                               ; preds = %96, %83
  %86 = load i32, i32* %5, align 4
  %87 = load i32, i32* %2, align 4
  %88 = add nsw i32 %87, 1
  %89 = icmp slt i32 %86, %88
  br i1 %89, label %90, label %99

90:                                               ; preds = %85
  %91 = load i32, i32* %5, align 4
  %92 = sext i32 %91 to i64
  %93 = getelementptr inbounds [200 x [200 x i8]], [200 x [200 x i8]]* @m, i64 0, i64 %92
  %94 = getelementptr inbounds [200 x i8], [200 x i8]* %93, i64 0, i64 0
  %95 = call i32 (i8*, ...) @printf(i8* getelementptr inbounds ([4 x i8], [4 x i8]* @.str.1, i64 0, i64 0), i8* %94)
  br label %96

96:                                               ; preds = %90
  %97 = load i32, i32* %5, align 4
  %98 = add nsw i32 %97, 1
  store i32 %98, i32* %5, align 4
  br label %85

99:                                               ; preds = %85
  ret i32 0
}

declare dso_local i32 @gets(...) #1

declare dso_local i32 @__isoc99_scanf(i8*, ...) #1

; Function Attrs: nounwind readonly
declare dso_local i32 @strcmp(i8*, i8*) #2

; Function Attrs: nounwind readonly
declare dso_local i64 @strlen(i8*) #2

declare dso_local i32 @printf(i8*, ...) #1


!llvm.module.flags = !{!0}
!llvm.ident = !{!1}

!0 = !{i32 1, !"wchar_size", i32 4}
!1 = !{!"clang version 10.0.0-4ubuntu1 "}
